target datalayout = "e-m:e-p270:32:32-p271:32:32-p272:64:64-i64:64-i128:128-f80:128-n8:16:32:64-S128"
target triple = "x86_64-pc-linux-gnu"

%struct.bb_state = type { %struct.bb_config, ptr, ptr, ptr, %union.pthread_mutex_t, i64, i64, ptr, i64, i64, i64, ptr, %union.pthread_cond_t, i8, %union.pthread_mutex_t, i64, i32, i32, i64, i64 }
%struct.bb_config = type { ptr, ptr, ptr, ptr, ptr, ptr, ptr, ptr, i32, ptr, ptr, i64, i32, ptr, i32, i32, i32, i32, ptr, ptr, ptr, ptr, i32 }
%union.pthread_cond_t = type { %struct.__pthread_cond_s }
%struct.__pthread_cond_s = type { %union.__atomic_wide_counter, %union.__atomic_wide_counter, [2 x i32], [2 x i32], i32, i32, [2 x i32] }
%union.__atomic_wide_counter = type { i64 }
%union.pthread_mutex_t = type { %struct.__pthread_mutex_s }
%struct.__pthread_mutex_s = type { i32, i32, i32, i32, i32, i16, i16, %struct.__pthread_internal_list }
%struct.__pthread_internal_list = type { ptr, ptr }

@.str = private unnamed_addr constant [22 x i8] c"burst_buffer_common.c\00", align 1
@__func__.bb_alloc_cache = private unnamed_addr constant [15 x i8] c"bb_alloc_cache\00", align 1

; Function Attrs: nounwind uwtable
define dso_local void @bb_alloc_cache(ptr noundef %0) #0 {
  %2 = alloca ptr, align 8
  store ptr %0, ptr %2, align 8
  %3 = call ptr @slurm_xcalloc(i64 noundef 100, i64 noundef 8, i1 noundef zeroext true, i1 noundef zeroext false, ptr noundef @.str, i32 noundef 142, ptr noundef @__func__.bb_alloc_cache)
  %4 = load ptr, ptr %2, align 8
  %5 = getelementptr inbounds nuw %struct.bb_state, ptr %4, i32 0, i32 1
  store ptr %3, ptr %5, align 8
  %6 = call ptr @slurm_xcalloc(i64 noundef 100, i64 noundef 8, i1 noundef zeroext true, i1 noundef zeroext false, ptr noundef @.str, i32 noundef 143, ptr noundef @__func__.bb_alloc_cache)
  %7 = load ptr, ptr %2, align 8
  %8 = getelementptr inbounds nuw %struct.bb_state, ptr %7, i32 0, i32 2
  store ptr %6, ptr %8, align 8
  %9 = call ptr @slurm_xcalloc(i64 noundef 100, i64 noundef 8, i1 noundef zeroext true, i1 noundef zeroext false, ptr noundef @.str, i32 noundef 144, ptr noundef @__func__.bb_alloc_cache)
  %10 = load ptr, ptr %2, align 8
  %11 = getelementptr inbounds nuw %struct.bb_state, ptr %10, i32 0, i32 3
  store ptr %9, ptr %11, align 8
  ret void
}