; Function Attrs: nounwind uwtable
define dso_local void @bb_alloc_cache(ptr noundef writeonly captures(none) initializes((168, 192)) %0) local_unnamed_addr #0 {
  %2 = tail call ptr @slurm_xcalloc(i64 noundef 100, i64 noundef 8, i1 noundef zeroext true, i1 noundef zeroext false, ptr noundef nonnull @.str, i32 noundef 142, ptr noundef nonnull @__func__.bb_alloc_cache) #17
  %3 = getelementptr inbounds nuw i8, ptr %0, i64 168
  store ptr %2, ptr %3, align 8
  %4 = tail call ptr @slurm_xcalloc(i64 noundef 100, i64 noundef 8, i1 noundef zeroext true, i1 noundef zeroext false, ptr noundef nonnull @.str, i32 noundef 143, ptr noundef nonnull @__func__.bb_alloc_cache) #17
  %5 = getelementptr inbounds nuw i8, ptr %0, i64 176
  store ptr %4, ptr %5, align 8
  %6 = tail call ptr @slurm_xcalloc(i64 noundef 100, i64 noundef 8, i1 noundef zeroext true, i1 noundef zeroext false, ptr noundef nonnull @.str, i32 noundef 144, ptr noundef nonnull @__func__.bb_alloc_cache) #17
  %7 = getelementptr inbounds nuw i8, ptr %0, i64 184
  store ptr %6, ptr %7, align 8
  ret void
}